; Function Attrs: nounwind sspstrong uwtable
define dso_local void @rb_str_setter(i64 noundef %0, i64 noundef %1, ptr noundef writeonly captures(none) %2) local_unnamed_addr #1 {
  %4 = icmp eq i64 %0, 4
  br i1 %4, label %16, label %5

5:                                                ; preds = %3
  %6 = icmp eq i64 %0, 0
  %7 = and i64 %0, 7
  %8 = icmp ne i64 %7, 0
  %9 = or i1 %6, %8
  br i1 %9, label %rbimpl_RB_TYPE_P_fastpath.exit.thread, label %rbimpl_RB_TYPE_P_fastpath.exit

rbimpl_RB_TYPE_P_fastpath.exit:                   ; preds = %5
  %10 = inttoptr i64 %0 to ptr
  %11 = load i64, ptr %10, align 8, !tbaa !7
  %12 = and i64 %11, 31
  %13 = icmp eq i64 %12, 5
  br i1 %13, label %16, label %rbimpl_RB_TYPE_P_fastpath.exit.thread

rbimpl_RB_TYPE_P_fastpath.exit.thread:            ; preds = %5, %rbimpl_RB_TYPE_P_fastpath.exit
  %14 = load i64, ptr @rb_eTypeError, align 8, !tbaa !26
  %15 = tail call i64 @rb_id2str(i64 noundef %1) #29
  tail call void (i64, ptr, ...) @rb_raise(i64 noundef %14, ptr noundef nonnull @.str.49, i64 noundef %15) #32
  unreachable

16:                                               ; preds = %rbimpl_RB_TYPE_P_fastpath.exit, %3
  store i64 %0, ptr %2, align 8, !tbaa !26
  ret void
}